target datalayout = "e-m:e-p270:32:32-p271:32:32-p272:64:64-i64:64-i128:128-f80:128-n8:16:32:64-S128"
target triple = "x86_64-pc-linux-gnu"

%"class.__gnu_cxx::__normal_iterator.36" = type { ptr }
%"class.zxing::Ref.21" = type { ptr }
%"struct.__gnu_cxx::__ops::_Iter_comp_iter.80" = type { %"class.zxing::qrcode::(anonymous namespace)::CountComparator" }
%"class.zxing::qrcode::(anonymous namespace)::CountComparator" = type { i8 }
%"struct.__gnu_cxx::__ops::_Val_comp_iter.82" = type { %"class.zxing::qrcode::(anonymous namespace)::CountComparator" }

; Function Attrs: mustprogress nounwind uwtable
define internal void @_ZN9__gnu_cxx5__ops14_Val_comp_iterIN5zxing6qrcode12_GLOBAL__N_115CountComparatorEEC2EONS0_15_Iter_comp_iterIS5_EE(ptr noundef nonnull align 1 dereferenceable(1) %0, ptr noundef nonnull align 1 dereferenceable(1) %1) unnamed_addr #1 align 2 {
  %3 = alloca ptr, align 8
  %4 = alloca ptr, align 8
  store ptr %0, ptr %3, align 8
  store ptr %1, ptr %4, align 8
  ret void
}

; Function Attrs: mustprogress nounwind uwtable
define linkonce_odr hidden noundef nonnull align 8 dereferenceable(8) ptr @_ZN9__gnu_cxx17__normal_iteratorIPN5zxing3RefINS1_6qrcode13FinderPatternEEESt6vectorIS5_SaIS5_EEEppEv(ptr noundef nonnull align 8 dereferenceable(8) %0) #1 comdat align 2 {
  %2 = alloca ptr, align 8
  store ptr %0, ptr %2, align 8
  %3 = load ptr, ptr %2, align 8
  %4 = getelementptr inbounds %"class.__gnu_cxx::__normal_iterator.36", ptr %3, i32 0, i32 0
  %5 = load ptr, ptr %4, align 8
  %6 = getelementptr inbounds %"class.zxing::Ref.21", ptr %5, i32 1
  store ptr %6, ptr %4, align 8
  ret ptr %3
}

; Function Attrs: mustprogress uwtable
define internal void @_ZN9__gnu_cxx5__ops15__val_comp_iterIN5zxing6qrcode12_GLOBAL__N_115CountComparatorEEENS0_14_Val_comp_iterIT_EENS0_15_Iter_comp_iterIS7_EE() #0 {
  %1 = alloca %"struct.__gnu_cxx::__ops::_Val_comp_iter.82", align 1
  %2 = alloca %"struct.__gnu_cxx::__ops::_Iter_comp_iter.80", align 1
  call void @_ZN9__gnu_cxx5__ops14_Val_comp_iterIN5zxing6qrcode12_GLOBAL__N_115CountComparatorEEC2EONS0_15_Iter_comp_iterIS5_EE(ptr noundef nonnull align 1 dereferenceable(1) %1, ptr noundef nonnull align 1 dereferenceable(1) %2)
  ret void
}

; Function Attrs: mustprogress nounwind uwtable
define linkonce_odr hidden void @_ZN9__gnu_cxx17__normal_iteratorIPN5zxing3RefINS1_6qrcode13FinderPatternEEESt6vectorIS5_SaIS5_EEEC2ERKS6_(ptr noundef nonnull align 8 dereferenceable(8) %0, ptr noundef nonnull align 8 dereferenceable(8) %1) unnamed_addr #1 comdat align 2 {
  %3 = alloca ptr, align 8
  %4 = alloca ptr, align 8
  store ptr %0, ptr %3, align 8
  store ptr %1, ptr %4, align 8
  %5 = load ptr, ptr %3, align 8
  %6 = getelementptr inbounds %"class.__gnu_cxx::__normal_iterator.36", ptr %5, i32 0, i32 0
  %7 = load ptr, ptr %4, align 8
  %8 = load ptr, ptr %7, align 8
  store ptr %8, ptr %6, align 8
  ret void
}

; Function Attrs: mustprogress uwtable
define internal void @_ZSt26__unguarded_insertion_sortIN9__gnu_cxx17__normal_iteratorIPN5zxing3RefINS2_6qrcode13FinderPatternEEESt6vectorIS6_SaIS6_EEEENS0_5__ops15_Iter_comp_iterINS4_12_GLOBAL__N_115CountComparatorEEEEvT_SH_T0_(ptr %0, ptr %1) #0 {
  %3 = alloca %"class.__gnu_cxx::__normal_iterator.36", align 8
  %4 = alloca %"class.__gnu_cxx::__normal_iterator.36", align 8
  %5 = alloca %"struct.__gnu_cxx::__ops::_Iter_comp_iter.80", align 1
  %6 = alloca %"class.__gnu_cxx::__normal_iterator.36", align 8
  %7 = alloca %"class.__gnu_cxx::__normal_iterator.36", align 8
  %8 = alloca %"struct.__gnu_cxx::__ops::_Iter_comp_iter.80", align 1
  %9 = getelementptr inbounds %"class.__gnu_cxx::__normal_iterator.36", ptr %3, i32 0, i32 0
  store ptr %0, ptr %9, align 8
  %10 = getelementptr inbounds %"class.__gnu_cxx::__normal_iterator.36", ptr %4, i32 0, i32 0
  store ptr %1, ptr %10, align 8
  call void @llvm.memcpy.p0.p0.i64(ptr align 8 %6, ptr align 8 %3, i64 8, i1 false)
  br label %11

11:                                               ; preds = %16, %2
  %12 = call noundef zeroext i1 @_ZN9__gnu_cxxneIPN5zxing3RefINS1_6qrcode13FinderPatternEEESt6vectorIS5_SaIS5_EEEEbRKNS_17__normal_iteratorIT_T0_EESF_(ptr noundef nonnull align 8 dereferenceable(8) %6, ptr noundef nonnull align 8 dereferenceable(8) %4) #12
  br i1 %12, label %13, label %18

13:                                               ; preds = %11
  call void @llvm.memcpy.p0.p0.i64(ptr align 8 %7, ptr align 8 %6, i64 8, i1 false)
  call void @llvm.memcpy.p0.p0.i64(ptr align 1 %8, ptr align 1 %5, i64 1, i1 false)
  call void @_ZN9__gnu_cxx5__ops15__val_comp_iterIN5zxing6qrcode12_GLOBAL__N_115CountComparatorEEENS0_14_Val_comp_iterIT_EENS0_15_Iter_comp_iterIS7_EE()
  %14 = getelementptr inbounds %"class.__gnu_cxx::__normal_iterator.36", ptr %7, i32 0, i32 0
  %15 = load ptr, ptr %14, align 8
  call void @_ZSt25__unguarded_linear_insertIN9__gnu_cxx17__normal_iteratorIPN5zxing3RefINS2_6qrcode13FinderPatternEEESt6vectorIS6_SaIS6_EEEENS0_5__ops14_Val_comp_iterINS4_12_GLOBAL__N_115CountComparatorEEEEvT_T0_(ptr %15)
  br label %16

16:                                               ; preds = %13
  %17 = call noundef nonnull align 8 dereferenceable(8) ptr @_ZN9__gnu_cxx17__normal_iteratorIPN5zxing3RefINS1_6qrcode13FinderPatternEEESt6vectorIS5_SaIS5_EEEppEv(ptr noundef nonnull align 8 dereferenceable(8) %6) #12
  br label %11, !llvm.loop !122

18:                                               ; preds = %11
  ret void
}

; Function Attrs: mustprogress nounwind uwtable
define linkonce_odr hidden ptr @_ZNK9__gnu_cxx17__normal_iteratorIPN5zxing3RefINS1_6qrcode13FinderPatternEEESt6vectorIS5_SaIS5_EEEplEl(ptr noundef nonnull align 8 dereferenceable(8) %0, i64 noundef %1) #1 comdat align 2 {
  %3 = alloca %"class.__gnu_cxx::__normal_iterator.36", align 8
  %4 = alloca ptr, align 8
  %5 = alloca i64, align 8
  %6 = alloca ptr, align 8
  store ptr %0, ptr %4, align 8
  store i64 %1, ptr %5, align 8
  %7 = load ptr, ptr %4, align 8
  %8 = getelementptr inbounds %"class.__gnu_cxx::__normal_iterator.36", ptr %7, i32 0, i32 0
  %9 = load ptr, ptr %8, align 8
  %10 = load i64, ptr %5, align 8
  %11 = getelementptr inbounds %"class.zxing::Ref.21", ptr %9, i64 %10
  store ptr %11, ptr %6, align 8
  call void @_ZN9__gnu_cxx17__normal_iteratorIPN5zxing3RefINS1_6qrcode13FinderPatternEEESt6vectorIS5_SaIS5_EEEC2ERKS6_(ptr noundef nonnull align 8 dereferenceable(8) %3, ptr noundef nonnull align 8 dereferenceable(8) %6) #12
  %12 = getelementptr inbounds %"class.__gnu_cxx::__normal_iterator.36", ptr %3, i32 0, i32 0
  %13 = load ptr, ptr %12, align 8
  ret ptr %13
}

; Function Attrs: mustprogress nounwind uwtable
define linkonce_odr hidden noundef nonnull align 8 dereferenceable(8) ptr @_ZNK9__gnu_cxx17__normal_iteratorIPN5zxing3RefINS1_6qrcode13FinderPatternEEESt6vectorIS5_SaIS5_EEE4baseEv(ptr noundef nonnull align 8 dereferenceable(8) %0) #1 comdat align 2 {
  %2 = alloca ptr, align 8
  store ptr %0, ptr %2, align 8
  %3 = load ptr, ptr %2, align 8
  %4 = getelementptr inbounds %"class.__gnu_cxx::__normal_iterator.36", ptr %3, i32 0, i32 0
  ret ptr %4
}

; Function Attrs: mustprogress uwtable
define internal void @_ZSt22__final_insertion_sortIN9__gnu_cxx17__normal_iteratorIPN5zxing3RefINS2_6qrcode13FinderPatternEEESt6vectorIS6_SaIS6_EEEENS0_5__ops15_Iter_comp_iterINS4_12_GLOBAL__N_115CountComparatorEEEEvT_SH_T0_(ptr %0, ptr %1) #0 {
  %3 = alloca %"class.__gnu_cxx::__normal_iterator.36", align 8
  %4 = alloca %"class.__gnu_cxx::__normal_iterator.36", align 8
  %5 = alloca %"struct.__gnu_cxx::__ops::_Iter_comp_iter.80", align 1
  %6 = alloca %"class.__gnu_cxx::__normal_iterator.36", align 8
  %7 = alloca %"class.__gnu_cxx::__normal_iterator.36", align 8
  %8 = alloca %"struct.__gnu_cxx::__ops::_Iter_comp_iter.80", align 1
  %9 = alloca %"class.__gnu_cxx::__normal_iterator.36", align 8
  %10 = alloca %"class.__gnu_cxx::__normal_iterator.36", align 8
  %11 = alloca %"struct.__gnu_cxx::__ops::_Iter_comp_iter.80", align 1
  %12 = alloca %"class.__gnu_cxx::__normal_iterator.36", align 8
  %13 = alloca %"class.__gnu_cxx::__normal_iterator.36", align 8
  %14 = alloca %"struct.__gnu_cxx::__ops::_Iter_comp_iter.80", align 1
  %15 = getelementptr inbounds %"class.__gnu_cxx::__normal_iterator.36", ptr %3, i32 0, i32 0
  store ptr %0, ptr %15, align 8
  %16 = getelementptr inbounds %"class.__gnu_cxx::__normal_iterator.36", ptr %4, i32 0, i32 0
  store ptr %1, ptr %16, align 8
  %17 = call noundef i64 @_ZN9__gnu_cxxmiIPN5zxing3RefINS1_6qrcode13FinderPatternEEESt6vectorIS5_SaIS5_EEEENS_17__normal_iteratorIT_T0_E15difference_typeERKSD_SG_(ptr noundef nonnull align 8 dereferenceable(8) %4, ptr noundef nonnull align 8 dereferenceable(8) %3) #12
  %18 = icmp sgt i64 %17, 16
  br i1 %18, label %19, label %32

19:                                               ; preds = %2
  call void @llvm.memcpy.p0.p0.i64(ptr align 8 %6, ptr align 8 %3, i64 8, i1 false)
  %20 = call ptr @_ZNK9__gnu_cxx17__normal_iteratorIPN5zxing3RefINS1_6qrcode13FinderPatternEEESt6vectorIS5_SaIS5_EEEplEl(ptr noundef nonnull align 8 dereferenceable(8) %3, i64 noundef 16) #12
  %21 = getelementptr inbounds %"class.__gnu_cxx::__normal_iterator.36", ptr %7, i32 0, i32 0
  store ptr %20, ptr %21, align 8
  call void @llvm.memcpy.p0.p0.i64(ptr align 1 %8, ptr align 1 %5, i64 1, i1 false)
  %22 = getelementptr inbounds %"class.__gnu_cxx::__normal_iterator.36", ptr %6, i32 0, i32 0
  %23 = load ptr, ptr %22, align 8
  %24 = getelementptr inbounds %"class.__gnu_cxx::__normal_iterator.36", ptr %7, i32 0, i32 0
  %25 = load ptr, ptr %24, align 8
  call void @_ZSt16__insertion_sortIN9__gnu_cxx17__normal_iteratorIPN5zxing3RefINS2_6qrcode13FinderPatternEEESt6vectorIS6_SaIS6_EEEENS0_5__ops15_Iter_comp_iterINS4_12_GLOBAL__N_115CountComparatorEEEEvT_SH_T0_(ptr %23, ptr %25)
  %26 = call ptr @_ZNK9__gnu_cxx17__normal_iteratorIPN5zxing3RefINS1_6qrcode13FinderPatternEEESt6vectorIS5_SaIS5_EEEplEl(ptr noundef nonnull align 8 dereferenceable(8) %3, i64 noundef 16) #12
  %27 = getelementptr inbounds %"class.__gnu_cxx::__normal_iterator.36", ptr %9, i32 0, i32 0
  store ptr %26, ptr %27, align 8
  call void @llvm.memcpy.p0.p0.i64(ptr align 8 %10, ptr align 8 %4, i64 8, i1 false)
  call void @llvm.memcpy.p0.p0.i64(ptr align 1 %11, ptr align 1 %5, i64 1, i1 false)
  %28 = getelementptr inbounds %"class.__gnu_cxx::__normal_iterator.36", ptr %9, i32 0, i32 0
  %29 = load ptr, ptr %28, align 8
  %30 = getelementptr inbounds %"class.__gnu_cxx::__normal_iterator.36", ptr %10, i32 0, i32 0
  %31 = load ptr, ptr %30, align 8
  call void @_ZSt26__unguarded_insertion_sortIN9__gnu_cxx17__normal_iteratorIPN5zxing3RefINS2_6qrcode13FinderPatternEEESt6vectorIS6_SaIS6_EEEENS0_5__ops15_Iter_comp_iterINS4_12_GLOBAL__N_115CountComparatorEEEEvT_SH_T0_(ptr %29, ptr %31)
  br label %37

32:                                               ; preds = %2
  call void @llvm.memcpy.p0.p0.i64(ptr align 8 %12, ptr align 8 %3, i64 8, i1 false)
  call void @llvm.memcpy.p0.p0.i64(ptr align 8 %13, ptr align 8 %4, i64 8, i1 false)
  call void @llvm.memcpy.p0.p0.i64(ptr align 1 %14, ptr align 1 %5, i64 1, i1 false)
  %33 = getelementptr inbounds %"class.__gnu_cxx::__normal_iterator.36", ptr %12, i32 0, i32 0
  %34 = load ptr, ptr %33, align 8
  %35 = getelementptr inbounds %"class.__gnu_cxx::__normal_iterator.36", ptr %13, i32 0, i32 0
  %36 = load ptr, ptr %35, align 8
  call void @_ZSt16__insertion_sortIN9__gnu_cxx17__normal_iteratorIPN5zxing3RefINS2_6qrcode13FinderPatternEEESt6vectorIS6_SaIS6_EEEENS0_5__ops15_Iter_comp_iterINS4_12_GLOBAL__N_115CountComparatorEEEEvT_SH_T0_(ptr %34, ptr %36)
  br label %37

37:                                               ; preds = %32, %19
  ret void
}

; Function Attrs: mustprogress nounwind uwtable
define linkonce_odr noundef i64 @_ZSt4__lgl(i64 noundef %0) #1 comdat {
  %2 = alloca i64, align 8
  store i64 %0, ptr %2, align 8
  %3 = load i64, ptr %2, align 8
  %4 = call i64 @llvm.ctlz.i64(i64 %3, i1 true)
  %5 = trunc i64 %4 to i32
  %6 = sub nsw i32 63, %5
  %7 = sext i32 %6 to i64
  ret i64 %7
}

; Function Attrs: mustprogress nounwind uwtable
define linkonce_odr hidden noundef i64 @_ZN9__gnu_cxxmiIPN5zxing3RefINS1_6qrcode13FinderPatternEEESt6vectorIS5_SaIS5_EEEENS_17__normal_iteratorIT_T0_E15difference_typeERKSD_SG_(ptr noundef nonnull align 8 dereferenceable(8) %0, ptr noundef nonnull align 8 dereferenceable(8) %1) #1 comdat {
  %3 = alloca ptr, align 8
  %4 = alloca ptr, align 8
  store ptr %0, ptr %3, align 8
  store ptr %1, ptr %4, align 8
  %5 = load ptr, ptr %3, align 8
  %6 = call noundef nonnull align 8 dereferenceable(8) ptr @_ZNK9__gnu_cxx17__normal_iteratorIPN5zxing3RefINS1_6qrcode13FinderPatternEEESt6vectorIS5_SaIS5_EEE4baseEv(ptr noundef nonnull align 8 dereferenceable(8) %5) #12
  %7 = load ptr, ptr %6, align 8
  %8 = load ptr, ptr %4, align 8
  %9 = call noundef nonnull align 8 dereferenceable(8) ptr @_ZNK9__gnu_cxx17__normal_iteratorIPN5zxing3RefINS1_6qrcode13FinderPatternEEESt6vectorIS5_SaIS5_EEE4baseEv(ptr noundef nonnull align 8 dereferenceable(8) %8) #12
  %10 = load ptr, ptr %9, align 8
  %11 = ptrtoint ptr %7 to i64
  %12 = ptrtoint ptr %10 to i64
  %13 = sub i64 %11, %12
  %14 = sdiv exact i64 %13, 8
  ret i64 %14
}

; Function Attrs: mustprogress nounwind uwtable
define linkonce_odr hidden noundef zeroext i1 @_ZN9__gnu_cxxneIPN5zxing3RefINS1_6qrcode13FinderPatternEEESt6vectorIS5_SaIS5_EEEEbRKNS_17__normal_iteratorIT_T0_EESF_(ptr noundef nonnull align 8 dereferenceable(8) %0, ptr noundef nonnull align 8 dereferenceable(8) %1) #1 comdat {
  %3 = alloca ptr, align 8
  %4 = alloca ptr, align 8
  store ptr %0, ptr %3, align 8
  store ptr %1, ptr %4, align 8
  %5 = load ptr, ptr %3, align 8
  %6 = call noundef nonnull align 8 dereferenceable(8) ptr @_ZNK9__gnu_cxx17__normal_iteratorIPN5zxing3RefINS1_6qrcode13FinderPatternEEESt6vectorIS5_SaIS5_EEE4baseEv(ptr noundef nonnull align 8 dereferenceable(8) %5) #12
  %7 = load ptr, ptr %6, align 8
  %8 = load ptr, ptr %4, align 8
  %9 = call noundef nonnull align 8 dereferenceable(8) ptr @_ZNK9__gnu_cxx17__normal_iteratorIPN5zxing3RefINS1_6qrcode13FinderPatternEEESt6vectorIS5_SaIS5_EEE4baseEv(ptr noundef nonnull align 8 dereferenceable(8) %8) #12
  %10 = load ptr, ptr %9, align 8
  %11 = icmp ne ptr %7, %10
  ret i1 %11
}

; Function Attrs: mustprogress nounwind uwtable
define internal void @_ZN9__gnu_cxx5__ops15_Iter_comp_iterIN5zxing6qrcode12_GLOBAL__N_115CountComparatorEEC2ES5_(ptr noundef nonnull align 1 dereferenceable(1) %0) unnamed_addr #1 align 2 {
  %2 = alloca ptr, align 8
  store ptr %0, ptr %2, align 8
  ret void
}

; Function Attrs: mustprogress uwtable
define internal void @_ZSt6__sortIN9__gnu_cxx17__normal_iteratorIPN5zxing3RefINS2_6qrcode13FinderPatternEEESt6vectorIS6_SaIS6_EEEENS0_5__ops15_Iter_comp_iterINS4_12_GLOBAL__N_115CountComparatorEEEEvT_SH_T0_(ptr %0, ptr %1) #0 {
  %3 = alloca %"class.__gnu_cxx::__normal_iterator.36", align 8
  %4 = alloca %"class.__gnu_cxx::__normal_iterator.36", align 8
  %5 = alloca %"struct.__gnu_cxx::__ops::_Iter_comp_iter.80", align 1
  %6 = alloca %"class.__gnu_cxx::__normal_iterator.36", align 8
  %7 = alloca %"class.__gnu_cxx::__normal_iterator.36", align 8
  %8 = alloca %"struct.__gnu_cxx::__ops::_Iter_comp_iter.80", align 1
  %9 = alloca %"class.__gnu_cxx::__normal_iterator.36", align 8
  %10 = alloca %"class.__gnu_cxx::__normal_iterator.36", align 8
  %11 = alloca %"struct.__gnu_cxx::__ops::_Iter_comp_iter.80", align 1
  %12 = getelementptr inbounds %"class.__gnu_cxx::__normal_iterator.36", ptr %3, i32 0, i32 0
  store ptr %0, ptr %12, align 8
  %13 = getelementptr inbounds %"class.__gnu_cxx::__normal_iterator.36", ptr %4, i32 0, i32 0
  store ptr %1, ptr %13, align 8
  %14 = call noundef zeroext i1 @_ZN9__gnu_cxxneIPN5zxing3RefINS1_6qrcode13FinderPatternEEESt6vectorIS5_SaIS5_EEEEbRKNS_17__normal_iteratorIT_T0_EESF_(ptr noundef nonnull align 8 dereferenceable(8) %3, ptr noundef nonnull align 8 dereferenceable(8) %4) #12
  br i1 %14, label %15, label %27

15:                                               ; preds = %2
  call void @llvm.memcpy.p0.p0.i64(ptr align 8 %6, ptr align 8 %3, i64 8, i1 false)
  call void @llvm.memcpy.p0.p0.i64(ptr align 8 %7, ptr align 8 %4, i64 8, i1 false)
  %16 = call noundef i64 @_ZN9__gnu_cxxmiIPN5zxing3RefINS1_6qrcode13FinderPatternEEESt6vectorIS5_SaIS5_EEEENS_17__normal_iteratorIT_T0_E15difference_typeERKSD_SG_(ptr noundef nonnull align 8 dereferenceable(8) %4, ptr noundef nonnull align 8 dereferenceable(8) %3) #12
  %17 = call noundef i64 @_ZSt4__lgl(i64 noundef %16)
  %18 = mul nsw i64 %17, 2
  call void @llvm.memcpy.p0.p0.i64(ptr align 1 %8, ptr align 1 %5, i64 1, i1 false)
  %19 = getelementptr inbounds %"class.__gnu_cxx::__normal_iterator.36", ptr %6, i32 0, i32 0
  %20 = load ptr, ptr %19, align 8
  %21 = getelementptr inbounds %"class.__gnu_cxx::__normal_iterator.36", ptr %7, i32 0, i32 0
  %22 = load ptr, ptr %21, align 8
  call void @_ZSt16__introsort_loopIN9__gnu_cxx17__normal_iteratorIPN5zxing3RefINS2_6qrcode13FinderPatternEEESt6vectorIS6_SaIS6_EEEElNS0_5__ops15_Iter_comp_iterINS4_12_GLOBAL__N_115CountComparatorEEEEvT_SH_T0_T1_(ptr %20, ptr %22, i64 noundef %18)
  call void @llvm.memcpy.p0.p0.i64(ptr align 8 %9, ptr align 8 %3, i64 8, i1 false)
  call void @llvm.memcpy.p0.p0.i64(ptr align 8 %10, ptr align 8 %4, i64 8, i1 false)
  call void @llvm.memcpy.p0.p0.i64(ptr align 1 %11, ptr align 1 %5, i64 1, i1 false)
  %23 = getelementptr inbounds %"class.__gnu_cxx::__normal_iterator.36", ptr %9, i32 0, i32 0
  %24 = load ptr, ptr %23, align 8
  %25 = getelementptr inbounds %"class.__gnu_cxx::__normal_iterator.36", ptr %10, i32 0, i32 0
  %26 = load ptr, ptr %25, align 8
  call void @_ZSt22__final_insertion_sortIN9__gnu_cxx17__normal_iteratorIPN5zxing3RefINS2_6qrcode13FinderPatternEEESt6vectorIS6_SaIS6_EEEENS0_5__ops15_Iter_comp_iterINS4_12_GLOBAL__N_115CountComparatorEEEEvT_SH_T0_(ptr %24, ptr %26)
  br label %27

27:                                               ; preds = %15, %2
  ret void
}

; Function Attrs: mustprogress uwtable
define internal void @_ZN9__gnu_cxx5__ops16__iter_comp_iterIN5zxing6qrcode12_GLOBAL__N_115CountComparatorEEENS0_15_Iter_comp_iterIT_EES7_() #0 {
  %1 = alloca %"struct.__gnu_cxx::__ops::_Iter_comp_iter.80", align 1
  call void @_ZN9__gnu_cxx5__ops15_Iter_comp_iterIN5zxing6qrcode12_GLOBAL__N_115CountComparatorEEC2ES5_(ptr noundef nonnull align 1 dereferenceable(1) %1)
  ret void
}

; Function Attrs: mustprogress uwtable
define internal void @_ZSt4sortIN9__gnu_cxx17__normal_iteratorIPN5zxing3RefINS2_6qrcode13FinderPatternEEESt6vectorIS6_SaIS6_EEEENS4_12_GLOBAL__N_115CountComparatorEEvT_SE_T0_(ptr %0, ptr %1) #0 {
  %3 = alloca %"class.__gnu_cxx::__normal_iterator.36", align 8
  %4 = alloca %"class.__gnu_cxx::__normal_iterator.36", align 8
  %5 = alloca %"class.__gnu_cxx::__normal_iterator.36", align 8
  %6 = alloca %"class.__gnu_cxx::__normal_iterator.36", align 8
  %7 = getelementptr inbounds %"class.__gnu_cxx::__normal_iterator.36", ptr %3, i32 0, i32 0
  store ptr %0, ptr %7, align 8
  %8 = getelementptr inbounds %"class.__gnu_cxx::__normal_iterator.36", ptr %4, i32 0, i32 0
  store ptr %1, ptr %8, align 8
  call void @llvm.memcpy.p0.p0.i64(ptr align 8 %5, ptr align 8 %3, i64 8, i1 false)
  call void @llvm.memcpy.p0.p0.i64(ptr align 8 %6, ptr align 8 %4, i64 8, i1 false)
  call void @_ZN9__gnu_cxx5__ops16__iter_comp_iterIN5zxing6qrcode12_GLOBAL__N_115CountComparatorEEENS0_15_Iter_comp_iterIT_EES7_()
  %9 = getelementptr inbounds %"class.__gnu_cxx::__normal_iterator.36", ptr %5, i32 0, i32 0
  %10 = load ptr, ptr %9, align 8
  %11 = getelementptr inbounds %"class.__gnu_cxx::__normal_iterator.36", ptr %6, i32 0, i32 0
  %12 = load ptr, ptr %11, align 8
  call void @_ZSt6__sortIN9__gnu_cxx17__normal_iteratorIPN5zxing3RefINS2_6qrcode13FinderPatternEEESt6vectorIS6_SaIS6_EEEENS0_5__ops15_Iter_comp_iterINS4_12_GLOBAL__N_115CountComparatorEEEEvT_SH_T0_(ptr %10, ptr %12)
  ret void
}