; Function Attrs: mustprogress uwtable
define internal fastcc void @_ZSt4sortIN9__gnu_cxx17__normal_iteratorIPN5zxing3RefINS2_6qrcode13FinderPatternEEESt6vectorIS6_SaIS6_EEEENS4_12_GLOBAL__N_115CountComparatorEEvT_SE_T0_(ptr %0, ptr %1) unnamed_addr #0 {
  %.not.i = icmp eq ptr %0, %1
  br i1 %.not.i, label %_ZSt6__sortIN9__gnu_cxx17__normal_iteratorIPN5zxing3RefINS2_6qrcode13FinderPatternEEESt6vectorIS6_SaIS6_EEEENS0_5__ops15_Iter_comp_iterINS4_12_GLOBAL__N_115CountComparatorEEEEvT_SH_T0_.exit, label %3

3:                                                ; preds = %2
  %4 = ptrtoint ptr %1 to i64
  %5 = ptrtoint ptr %0 to i64
  %6 = sub i64 %4, %5
  %7 = ashr exact i64 %6, 3
  %8 = tail call range(i64 0, 65) i64 @llvm.ctlz.i64(i64 %7, i1 true)
  %9 = shl nuw nsw i64 %8, 1
  %10 = xor i64 %9, 126
  tail call fastcc void @_ZSt16__introsort_loopIN9__gnu_cxx17__normal_iteratorIPN5zxing3RefINS2_6qrcode13FinderPatternEEESt6vectorIS6_SaIS6_EEEElNS0_5__ops15_Iter_comp_iterINS4_12_GLOBAL__N_115CountComparatorEEEEvT_SH_T0_T1_(ptr %0, ptr %1, i64 noundef %10)
  %11 = icmp sgt i64 %6, 128
  br i1 %11, label %12, label %15

12:                                               ; preds = %3
  %13 = getelementptr inbounds i8, ptr %0, i64 128
  tail call fastcc void @_ZSt16__insertion_sortIN9__gnu_cxx17__normal_iteratorIPN5zxing3RefINS2_6qrcode13FinderPatternEEESt6vectorIS6_SaIS6_EEEENS0_5__ops15_Iter_comp_iterINS4_12_GLOBAL__N_115CountComparatorEEEEvT_SH_T0_(ptr %0, ptr nonnull %13)
  %.not6.i.i.i = icmp eq ptr %13, %1
  br i1 %.not6.i.i.i, label %_ZSt6__sortIN9__gnu_cxx17__normal_iteratorIPN5zxing3RefINS2_6qrcode13FinderPatternEEESt6vectorIS6_SaIS6_EEEENS0_5__ops15_Iter_comp_iterINS4_12_GLOBAL__N_115CountComparatorEEEEvT_SH_T0_.exit, label %.lr.ph.i.i.i

.lr.ph.i.i.i:                                     ; preds = %12, %.lr.ph.i.i.i
  %.sroa.0.07.i.i.i = phi ptr [ %14, %.lr.ph.i.i.i ], [ %13, %12 ]
  tail call fastcc void @_ZSt25__unguarded_linear_insertIN9__gnu_cxx17__normal_iteratorIPN5zxing3RefINS2_6qrcode13FinderPatternEEESt6vectorIS6_SaIS6_EEEENS0_5__ops14_Val_comp_iterINS4_12_GLOBAL__N_115CountComparatorEEEEvT_T0_(ptr nonnull %.sroa.0.07.i.i.i)
  %14 = getelementptr inbounds i8, ptr %.sroa.0.07.i.i.i, i64 8
  %.not.i.i.i = icmp eq ptr %14, %1
  br i1 %.not.i.i.i, label %_ZSt6__sortIN9__gnu_cxx17__normal_iteratorIPN5zxing3RefINS2_6qrcode13FinderPatternEEESt6vectorIS6_SaIS6_EEEENS0_5__ops15_Iter_comp_iterINS4_12_GLOBAL__N_115CountComparatorEEEEvT_SH_T0_.exit, label %.lr.ph.i.i.i, !llvm.loop !38

15:                                               ; preds = %3
  tail call fastcc void @_ZSt16__insertion_sortIN9__gnu_cxx17__normal_iteratorIPN5zxing3RefINS2_6qrcode13FinderPatternEEESt6vectorIS6_SaIS6_EEEENS0_5__ops15_Iter_comp_iterINS4_12_GLOBAL__N_115CountComparatorEEEEvT_SH_T0_(ptr %0, ptr %1)
  br label %_ZSt6__sortIN9__gnu_cxx17__normal_iteratorIPN5zxing3RefINS2_6qrcode13FinderPatternEEESt6vectorIS6_SaIS6_EEEENS0_5__ops15_Iter_comp_iterINS4_12_GLOBAL__N_115CountComparatorEEEEvT_SH_T0_.exit

_ZSt6__sortIN9__gnu_cxx17__normal_iteratorIPN5zxing3RefINS2_6qrcode13FinderPatternEEESt6vectorIS6_SaIS6_EEEENS0_5__ops15_Iter_comp_iterINS4_12_GLOBAL__N_115CountComparatorEEEEvT_SH_T0_.exit: ; preds = %.lr.ph.i.i.i, %2, %12, %15
  ret void
}